target datalayout = "e-m:e-p270:32:32-p271:32:32-p272:64:64-i64:64-i128:128-f80:128-n8:16:32:64-S128"
target triple = "x86_64-unknown-linux-gnu"

%"class.google::protobuf::internal::SymbolBase" = type { i8 }
%"class.google::protobuf::Descriptor" = type { %"class.google::protobuf::internal::SymbolBase", i8, i16, i32, ptr, ptr, ptr, ptr, ptr, ptr, ptr, ptr, ptr, ptr, ptr, ptr, ptr, ptr, i32, i32, i32, i32, i32, i32, i32, i32 }
%"class.google::protobuf::FileDescriptor" = type { %"class.google::protobuf::internal::SymbolBase", i8, i8, i32, ptr, ptr, ptr, i32, ptr, i32, i32, i32, i32, i32, i32, ptr, ptr, ptr, ptr, ptr, ptr, ptr, ptr, ptr, ptr, ptr, ptr }

; Function Attrs: mustprogress nounwind uwtable
define linkonce_odr hidden noundef ptr @_ZNK6google8protobuf14FileDescriptor4poolEv(ptr noundef nonnull align 8 dereferenceable(168) %this) #4 comdat align 2 {
entry:
  %this.addr = alloca ptr, align 8
  store ptr %this, ptr %this.addr, align 8
  %this1 = load ptr, ptr %this.addr, align 8
  %pool_ = getelementptr inbounds %"class.google::protobuf::FileDescriptor", ptr %this1, i32 0, i32 6
  %0 = load ptr, ptr %pool_, align 8
  ret ptr %0
}

; Function Attrs: mustprogress nounwind uwtable
define linkonce_odr hidden noundef ptr @_ZNK6google8protobuf10Descriptor4fileEv(ptr noundef nonnull align 8 dereferenceable(152) %this) #4 comdat align 2 {
entry:
  %this.addr = alloca ptr, align 8
  store ptr %this, ptr %this.addr, align 8
  %this1 = load ptr, ptr %this.addr, align 8
  %file_ = getelementptr inbounds %"class.google::protobuf::Descriptor", ptr %this1, i32 0, i32 5
  %0 = load ptr, ptr %file_, align 8
  ret ptr %0
}

; Function Attrs: mustprogress uwtable
define internal noundef ptr @_ZN6google8protobuf12_GLOBAL__N_134DefaultFinderFindExtensionByNumberEPKNS0_10DescriptorEi(ptr noundef %descriptor, i32 noundef %number) #5 {
entry:
  %descriptor.addr = alloca ptr, align 8
  %number.addr = alloca i32, align 4
  store ptr %descriptor, ptr %descriptor.addr, align 8
  store i32 %number, ptr %number.addr, align 4
  %0 = load ptr, ptr %descriptor.addr, align 8
  %call = call noundef ptr @_ZNK6google8protobuf10Descriptor4fileEv(ptr noundef nonnull align 8 dereferenceable(152) %0)
  %call1 = call noundef ptr @_ZNK6google8protobuf14FileDescriptor4poolEv(ptr noundef nonnull align 8 dereferenceable(168) %call)
  %1 = load ptr, ptr %descriptor.addr, align 8
  %2 = load i32, ptr %number.addr, align 4
  %call2 = call noundef ptr @_ZNK6google8protobuf14DescriptorPool21FindExtensionByNumberEPKNS0_10DescriptorEi(ptr noundef nonnull align 8 dereferenceable(96) %call1, ptr noundef %1, i32 noundef %2)
  ret ptr %call2
}

; Function Attrs: mustprogress uwtable
define noundef ptr @_ZNK6google8protobuf10TextFormat6Finder21FindExtensionByNumberEPKNS0_10DescriptorEi(ptr noundef nonnull align 8 dereferenceable(8) %this, ptr noundef %descriptor, i32 noundef %number) unnamed_addr #5 align 2 {
entry:
  %this.addr = alloca ptr, align 8
  %descriptor.addr = alloca ptr, align 8
  %number.addr = alloca i32, align 4
  store ptr %this, ptr %this.addr, align 8
  store ptr %descriptor, ptr %descriptor.addr, align 8
  store i32 %number, ptr %number.addr, align 4
  %0 = load ptr, ptr %descriptor.addr, align 8
  %1 = load i32, ptr %number.addr, align 4
  %call = call noundef ptr @_ZN6google8protobuf12_GLOBAL__N_134DefaultFinderFindExtensionByNumberEPKNS0_10DescriptorEi(ptr noundef %0, i32 noundef %1)
  ret ptr %call
}