; Function Attrs: mustprogress uwtable
define noundef ptr @_ZNK6google8protobuf10TextFormat6Finder21FindExtensionByNumberEPKNS0_10DescriptorEi(ptr nocapture nonnull readnone align 8 %this, ptr noundef %descriptor, i32 noundef %number) unnamed_addr #4 align 2 {
entry:
  %file_.i.i = getelementptr inbounds i8, ptr %descriptor, i64 16
  %0 = load ptr, ptr %file_.i.i, align 8
  %pool_.i.i = getelementptr inbounds i8, ptr %0, i64 24
  %1 = load ptr, ptr %pool_.i.i, align 8
  %call2.i = tail call noundef ptr @_ZNK6google8protobuf14DescriptorPool21FindExtensionByNumberEPKNS0_10DescriptorEi(ptr noundef nonnull align 8 dereferenceable(96) %1, ptr noundef nonnull %descriptor, i32 noundef %number)
  ret ptr %call2.i
}